; Function Attrs: mustprogress uwtable
define noundef zeroext i1 @_ZN5draco37SequentialAttributeDecodersController36DecodeDataNeededByPortableTransformsEPNS_13DecoderBufferE(ptr noundef nonnull align 8 dereferenceable(128) %0, ptr noundef %1) unnamed_addr #3 align 2 {
  %3 = load ptr, ptr %0, align 8
  %4 = getelementptr inbounds i8, ptr %3, i64 48
  %5 = load ptr, ptr %4, align 8
  %6 = tail call noundef i32 %5(ptr noundef nonnull align 8 dereferenceable(72) %0)
  %7 = icmp slt i32 %6, 1
  br i1 %7, label %._crit_edge, label %.lr.ph

.lr.ph:                                           ; preds = %2
  %8 = getelementptr inbounds i8, ptr %0, i64 72
  %9 = getelementptr inbounds i8, ptr %0, i64 96
  %10 = zext nneg i32 %6 to i64
  %wide.trip.count = zext nneg i32 %6 to i64
  %11 = load ptr, ptr %8, align 8
  %12 = load ptr, ptr %11, align 8
  %13 = load ptr, ptr %12, align 8
  %14 = getelementptr inbounds i8, ptr %13, i64 40
  %15 = load ptr, ptr %14, align 8
  %16 = tail call noundef zeroext i1 %15(ptr noundef nonnull align 8 dereferenceable(40) %12, ptr noundef nonnull align 8 dereferenceable(24) %9, ptr noundef %1)
  br i1 %16, label %.lr.ph11, label %._crit_edge

.lr.ph11:                                         ; preds = %.lr.ph, %17
  %indvars.iv10 = phi i64 [ %indvars.iv.next, %17 ], [ 0, %.lr.ph ]
  %indvars.iv.next = add nuw nsw i64 %indvars.iv10, 1
  %exitcond = icmp eq i64 %indvars.iv.next, %wide.trip.count
  br i1 %exitcond, label %._crit_edge.loopexit, label %17, !llvm.loop !15

17:                                               ; preds = %.lr.ph11
  %18 = load ptr, ptr %8, align 8
  %19 = getelementptr inbounds %"class.std::unique_ptr.12", ptr %18, i64 %indvars.iv.next
  %20 = load ptr, ptr %19, align 8
  %21 = load ptr, ptr %20, align 8
  %22 = getelementptr inbounds i8, ptr %21, i64 40
  %23 = load ptr, ptr %22, align 8
  %24 = tail call noundef zeroext i1 %23(ptr noundef nonnull align 8 dereferenceable(40) %20, ptr noundef nonnull align 8 dereferenceable(24) %9, ptr noundef %1)
  br i1 %24, label %.lr.ph11, label %._crit_edge.loopexit, !llvm.loop !15

._crit_edge.loopexit:                             ; preds = %17, %.lr.ph11
  %25 = icmp uge i64 %indvars.iv.next, %10
  br label %._crit_edge

._crit_edge:                                      ; preds = %._crit_edge.loopexit, %.lr.ph, %2
  %.lcssa = phi i1 [ true, %2 ], [ false, %.lr.ph ], [ %25, %._crit_edge.loopexit ]
  ret i1 %.lcssa
}